target datalayout = "e-m:e-p270:32:32-p271:32:32-p272:64:64-i64:64-i128:128-f80:128-n8:16:32:64-S128"
target triple = "x86_64-pc-linux-gnu"

%struct.quic_conn_id_st = type { i8, [20 x i8] }
%struct.quic_pkt_hdr_st = type { i32, i32, %struct.quic_conn_id_st, %struct.quic_conn_id_st, [4 x i8], ptr, i64, i64, ptr }
%struct.pkt_hdr_test = type { %struct.quic_pkt_hdr_st, ptr, i64, ptr, i64, i64, i64, i64, i64 }

@.str.3 = private unnamed_addr constant [35 x i8] c"../openssl/test/quic_record_test.c\00", align 1
@.str.85 = private unnamed_addr constant [20 x i8] c"counts_u[cipher][i]\00", align 1
@.str.86 = private unnamed_addr constant [2 x i8] c"0\00", align 1
@counts_u = internal global [3 x [37 x i32]] zeroinitializer, align 16
@.str.87 = private unnamed_addr constant [20 x i8] c"counts_c[cipher][i]\00", align 1
@counts_c = internal global [3 x [37 x i32]] zeroinitializer, align 16
@.str.88 = private unnamed_addr constant [64 x i8] c"test_wire_pkt_hdr_actual(tidx, repeat, cipher, t->expected_len)\00", align 1
@.str.89 = private unnamed_addr constant [50 x i8] c"test_wire_pkt_hdr_actual(tidx, repeat, cipher, i)\00", align 1

; Function Attrs: nounwind uwtable
define internal i32 @test_wire_pkt_hdr_inner(i32 noundef %0, i32 noundef %1, i32 noundef %2) #0 {
  %4 = alloca i32, align 4
  %5 = alloca i32, align 4
  %6 = alloca i32, align 4
  %7 = alloca i32, align 4
  %8 = alloca ptr, align 8
  %9 = alloca i64, align 8
  store i32 %0, ptr %4, align 4, !tbaa !4
  store i32 %1, ptr %5, align 4, !tbaa !4
  store i32 %2, ptr %6, align 4, !tbaa !4
  call void @llvm.lifetime.start.p0(i64 4, ptr %7) #9
  store i32 0, ptr %7, align 4, !tbaa !4
  call void @llvm.lifetime.start.p0(i64 8, ptr %8) #9
  %10 = load i32, ptr %4, align 4, !tbaa !4
  %11 = sext i32 %10 to i64
  %12 = getelementptr inbounds [20 x ptr], ptr @pkt_hdr_tests, i64 0, i64 %11
  %13 = load ptr, ptr %12, align 8, !tbaa !77
  store ptr %13, ptr %8, align 8, !tbaa !77
  call void @llvm.lifetime.start.p0(i64 8, ptr %9) #9
  %14 = load i32, ptr %4, align 4, !tbaa !4
  %15 = load i32, ptr %5, align 4, !tbaa !4
  %16 = load i32, ptr %6, align 4, !tbaa !4
  %17 = load ptr, ptr %8, align 8, !tbaa !77
  %18 = getelementptr inbounds nuw %struct.pkt_hdr_test, ptr %17, i32 0, i32 2
  %19 = load i64, ptr %18, align 8, !tbaa !79
  %20 = call i32 @test_wire_pkt_hdr_actual(i32 noundef %14, i32 noundef %15, i32 noundef %16, i64 noundef %19)
  %21 = icmp ne i32 %20, 0
  %22 = zext i1 %21 to i32
  %23 = call i32 @test_true(ptr noundef @.str.3, i32 noundef 2938, ptr noundef @.str.88, i32 noundef %22)
  %24 = icmp ne i32 %23, 0
  br i1 %24, label %26, label %25

25:                                               ; preds = %3
  br label %49

26:                                               ; preds = %3
  store i64 0, ptr %9, align 8, !tbaa !15
  br label %27

27:                                               ; preds = %45, %26
  %28 = load i64, ptr %9, align 8, !tbaa !15
  %29 = load ptr, ptr %8, align 8, !tbaa !77
  %30 = getelementptr inbounds nuw %struct.pkt_hdr_test, ptr %29, i32 0, i32 2
  %31 = load i64, ptr %30, align 8, !tbaa !79
  %32 = icmp ult i64 %28, %31
  br i1 %32, label %33, label %48

33:                                               ; preds = %27
  %34 = load i32, ptr %4, align 4, !tbaa !4
  %35 = load i32, ptr %5, align 4, !tbaa !4
  %36 = load i32, ptr %6, align 4, !tbaa !4
  %37 = load i64, ptr %9, align 8, !tbaa !15
  %38 = call i32 @test_wire_pkt_hdr_actual(i32 noundef %34, i32 noundef %35, i32 noundef %36, i64 noundef %37)
  %39 = icmp ne i32 %38, 0
  %40 = zext i1 %39 to i32
  %41 = call i32 @test_true(ptr noundef @.str.3, i32 noundef 2943, ptr noundef @.str.89, i32 noundef %40)
  %42 = icmp ne i32 %41, 0
  br i1 %42, label %44, label %43

43:                                               ; preds = %33
  br label %49

44:                                               ; preds = %33
  br label %45

45:                                               ; preds = %44
  %46 = load i64, ptr %9, align 8, !tbaa !15
  %47 = add i64 %46, 1
  store i64 %47, ptr %9, align 8, !tbaa !15
  br label %27, !llvm.loop !81

48:                                               ; preds = %27
  store i32 1, ptr %7, align 4, !tbaa !4
  br label %49

49:                                               ; preds = %48, %43, %25
  %50 = load i32, ptr %7, align 4, !tbaa !4
  call void @llvm.lifetime.end.p0(i64 8, ptr %9) #9
  call void @llvm.lifetime.end.p0(i64 8, ptr %8) #9
  call void @llvm.lifetime.end.p0(i64 4, ptr %7) #9
  ret i32 %50
}

; Function Attrs: nounwind uwtable
define internal i32 @test_hdr_prot_stats() #0 {
  %1 = alloca i32, align 4
  %2 = alloca i64, align 8
  %3 = alloca i64, align 8
  call void @llvm.lifetime.start.p0(i64 4, ptr %1) #9
  store i32 0, ptr %1, align 4, !tbaa !4
  call void @llvm.lifetime.start.p0(i64 8, ptr %2) #9
  call void @llvm.lifetime.start.p0(i64 8, ptr %3) #9
  store i64 0, ptr %3, align 8, !tbaa !15
  br label %4

4:                                                ; preds = %34, %0
  %5 = load i64, ptr %3, align 8, !tbaa !15
  %6 = icmp ult i64 %5, 3
  br i1 %6, label %7, label %37

7:                                                ; preds = %4
  store i64 0, ptr %2, align 8, !tbaa !15
  br label %8

8:                                                ; preds = %30, %7
  %9 = load i64, ptr %2, align 8, !tbaa !15
  %10 = icmp ult i64 %9, 37
  br i1 %10, label %11, label %33

11:                                               ; preds = %8
  %12 = load i64, ptr %3, align 8, !tbaa !15
  %13 = getelementptr inbounds nuw [3 x [37 x i32]], ptr @counts_u, i64 0, i64 %12
  %14 = load i64, ptr %2, align 8, !tbaa !15
  %15 = getelementptr inbounds nuw [37 x i32], ptr %13, i64 0, i64 %14
  %16 = load i32, ptr %15, align 4, !tbaa !4
  %17 = call i32 @test_uint_gt(ptr noundef @.str.3, i32 noundef 2964, ptr noundef @.str.85, ptr noundef @.str.86, i32 noundef %16, i32 noundef 0)
  %18 = icmp ne i32 %17, 0
  br i1 %18, label %20, label %19

19:                                               ; preds = %11
  br label %38

20:                                               ; preds = %11
  %21 = load i64, ptr %3, align 8, !tbaa !15
  %22 = getelementptr inbounds nuw [3 x [37 x i32]], ptr @counts_c, i64 0, i64 %21
  %23 = load i64, ptr %2, align 8, !tbaa !15
  %24 = getelementptr inbounds nuw [37 x i32], ptr %22, i64 0, i64 %23
  %25 = load i32, ptr %24, align 4, !tbaa !4
  %26 = call i32 @test_uint_gt(ptr noundef @.str.3, i32 noundef 2966, ptr noundef @.str.87, ptr noundef @.str.86, i32 noundef %25, i32 noundef 0)
  %27 = icmp ne i32 %26, 0
  br i1 %27, label %29, label %28

28:                                               ; preds = %20
  br label %38

29:                                               ; preds = %20
  br label %30

30:                                               ; preds = %29
  %31 = load i64, ptr %2, align 8, !tbaa !15
  %32 = add i64 %31, 1
  store i64 %32, ptr %2, align 8, !tbaa !15
  br label %8, !llvm.loop !75

33:                                               ; preds = %8
  br label %34

34:                                               ; preds = %33
  %35 = load i64, ptr %3, align 8, !tbaa !15
  %36 = add i64 %35, 1
  store i64 %36, ptr %3, align 8, !tbaa !15
  br label %4, !llvm.loop !76

37:                                               ; preds = %4
  store i32 1, ptr %1, align 4, !tbaa !4
  br label %38

38:                                               ; preds = %37, %28, %19
  %39 = load i32, ptr %1, align 4, !tbaa !4
  call void @llvm.lifetime.end.p0(i64 8, ptr %3) #9
  call void @llvm.lifetime.end.p0(i64 8, ptr %2) #9
  call void @llvm.lifetime.end.p0(i64 4, ptr %1) #9
  ret i32 %39
}

; Function Attrs: nounwind uwtable
define internal i32 @test_wire_pkt_hdr(i32 noundef %0) #0 {
  %2 = alloca i32, align 4
  %3 = alloca i32, align 4
  %4 = alloca i32, align 4
  %5 = alloca i32, align 4
  %6 = alloca i32, align 4
  %7 = alloca i32, align 4
  store i32 %0, ptr %3, align 4, !tbaa !4
  call void @llvm.lifetime.start.p0(i64 4, ptr %4) #9
  call void @llvm.lifetime.start.p0(i64 4, ptr %5) #9
  call void @llvm.lifetime.start.p0(i64 4, ptr %6) #9
  %8 = load i32, ptr %3, align 4, !tbaa !4
  %9 = sext i32 %8 to i64
  %10 = icmp eq i64 %9, 240
  br i1 %10, label %11, label %13

11:                                               ; preds = %1
  %12 = call i32 @test_hdr_prot_stats()
  store i32 %12, ptr %2, align 4
  store i32 1, ptr %7, align 4
  br label %27

13:                                               ; preds = %1
  %14 = load i32, ptr %3, align 4, !tbaa !4
  %15 = srem i32 %14, 3
  store i32 %15, ptr %6, align 4, !tbaa !4
  %16 = load i32, ptr %3, align 4, !tbaa !4
  %17 = sdiv i32 %16, 3
  store i32 %17, ptr %3, align 4, !tbaa !4
  %18 = load i32, ptr %3, align 4, !tbaa !4
  %19 = srem i32 %18, 4
  store i32 %19, ptr %5, align 4, !tbaa !4
  %20 = load i32, ptr %3, align 4, !tbaa !4
  %21 = sdiv i32 %20, 4
  store i32 %21, ptr %3, align 4, !tbaa !4
  %22 = load i32, ptr %3, align 4, !tbaa !4
  store i32 %22, ptr %4, align 4, !tbaa !4
  %23 = load i32, ptr %4, align 4, !tbaa !4
  %24 = load i32, ptr %5, align 4, !tbaa !4
  %25 = load i32, ptr %6, align 4, !tbaa !4
  %26 = call i32 @test_wire_pkt_hdr_inner(i32 noundef %23, i32 noundef %24, i32 noundef %25)
  store i32 %26, ptr %2, align 4
  store i32 1, ptr %7, align 4
  br label %27

27:                                               ; preds = %13, %11
  call void @llvm.lifetime.end.p0(i64 4, ptr %6) #9
  call void @llvm.lifetime.end.p0(i64 4, ptr %5) #9
  call void @llvm.lifetime.end.p0(i64 4, ptr %4) #9
  %28 = load i32, ptr %2, align 4
  ret i32 %28
}