; Function Attrs: nounwind uwtable
define internal range(i32 0, 2) i32 @test_wire_pkt_hdr(i32 noundef %0) #0 {
  %2 = icmp eq i32 %0, 240
  br i1 %2, label %.preheader.i, label %15

.preheader.i:                                     ; preds = %1, %13
  %.014.i = phi i64 [ %14, %13 ], [ 0, %1 ]
  br label %5

3:                                                ; preds = %9
  %4 = add nuw nsw i64 %.0913.i, 1
  %exitcond.not.i = icmp eq i64 %4, 37
  br i1 %exitcond.not.i, label %13, label %5, !llvm.loop !54

5:                                                ; preds = %3, %.preheader.i
  %.0913.i = phi i64 [ 0, %.preheader.i ], [ %4, %3 ]
  %6 = getelementptr inbounds nuw [3 x [37 x i32]], ptr @counts_u, i64 0, i64 %.014.i, i64 %.0913.i
  %7 = load i32, ptr %6, align 4, !tbaa !55
  %8 = tail call i32 @test_uint_gt(ptr noundef nonnull @.str.3, i32 noundef 2964, ptr noundef nonnull @.str.85, ptr noundef nonnull @.str.86, i32 noundef %7, i32 noundef 0) #10
  %.not.i = icmp eq i32 %8, 0
  br i1 %.not.i, label %test_hdr_prot_stats.exit, label %9

9:                                                ; preds = %5
  %10 = getelementptr inbounds nuw [3 x [37 x i32]], ptr @counts_c, i64 0, i64 %.014.i, i64 %.0913.i
  %11 = load i32, ptr %10, align 4, !tbaa !55
  %12 = tail call i32 @test_uint_gt(ptr noundef nonnull @.str.3, i32 noundef 2966, ptr noundef nonnull @.str.87, ptr noundef nonnull @.str.86, i32 noundef %11, i32 noundef 0) #10
  %.not11.i = icmp eq i32 %12, 0
  br i1 %.not11.i, label %test_hdr_prot_stats.exit, label %3

13:                                               ; preds = %3
  %14 = add nuw nsw i64 %.014.i, 1
  %exitcond16.not.i = icmp eq i64 %14, 3
  br i1 %exitcond16.not.i, label %test_hdr_prot_stats.exit, label %.preheader.i, !llvm.loop !56

15:                                               ; preds = %1
  %16 = srem i32 %0, 3
  %17 = sdiv i32 %0, 3
  %18 = srem i32 %17, 4
  %19 = sdiv i32 %0, 12
  %20 = sext i32 %19 to i64
  %21 = getelementptr inbounds [20 x ptr], ptr @pkt_hdr_tests, i64 0, i64 %20
  %22 = load ptr, ptr %21, align 8, !tbaa !57
  %23 = getelementptr inbounds nuw i8, ptr %22, i64 96
  %24 = load i64, ptr %23, align 8, !tbaa !59
  %25 = tail call fastcc i32 @test_wire_pkt_hdr_actual(i32 noundef range(i32 -178956970, 178956971) %19, i32 noundef range(i32 -3, 4) %18, i32 noundef range(i32 -2, 3) %16, i64 noundef %24)
  %26 = tail call i32 @test_true(ptr noundef nonnull @.str.3, i32 noundef 2938, ptr noundef nonnull @.str.88, i32 noundef %25) #10
  %.not.i10 = icmp eq i32 %26, 0
  br i1 %.not.i10, label %test_hdr_prot_stats.exit, label %.preheader.i11

.preheader.i11:                                   ; preds = %15
  %27 = load i64, ptr %23, align 8, !tbaa !59
  %.not17.i = icmp eq i64 %27, 0
  br i1 %.not17.i, label %test_hdr_prot_stats.exit, label %.lr.ph.i

28:                                               ; preds = %.lr.ph.i
  %29 = add nuw i64 %.014.i12, 1
  %30 = load i64, ptr %23, align 8, !tbaa !59
  %31 = icmp ult i64 %29, %30
  br i1 %31, label %.lr.ph.i, label %test_hdr_prot_stats.exit, !llvm.loop !61

.lr.ph.i:                                         ; preds = %.preheader.i11, %28
  %.014.i12 = phi i64 [ %29, %28 ], [ 0, %.preheader.i11 ]
  %32 = tail call fastcc i32 @test_wire_pkt_hdr_actual(i32 noundef range(i32 -178956970, 178956971) %19, i32 noundef range(i32 -3, 4) %18, i32 noundef range(i32 -2, 3) %16, i64 noundef %.014.i12)
  %33 = tail call i32 @test_true(ptr noundef nonnull @.str.3, i32 noundef 2943, ptr noundef nonnull @.str.89, i32 noundef %32) #10
  %.not13.i = icmp eq i32 %33, 0
  br i1 %.not13.i, label %test_hdr_prot_stats.exit, label %28

test_hdr_prot_stats.exit:                         ; preds = %.lr.ph.i, %28, %13, %9, %5, %.preheader.i11, %15
  %.0 = phi i32 [ 0, %15 ], [ 1, %.preheader.i11 ], [ 0, %5 ], [ 0, %9 ], [ 1, %13 ], [ 1, %28 ], [ 0, %.lr.ph.i ]
  ret i32 %.0
}